; Function Attrs: nounwind uwtable
define dso_local ptr @uid_to_dir(i32 noundef %0) local_unnamed_addr #0 {
  %2 = alloca %struct.passwd, align 8
  %3 = alloca ptr, align 8
  %4 = alloca [65536 x i8], align 16
  %5 = alloca ptr, align 8
  %6 = alloca i64, align 8
  %7 = alloca ptr, align 8
  call void @llvm.lifetime.start.p0(i64 48, ptr nonnull %2) #10
  call void @llvm.lifetime.start.p0(i64 8, ptr nonnull %3) #10
  call void @llvm.lifetime.start.p0(i64 65536, ptr nonnull %4) #10
  call void @llvm.lifetime.start.p0(i64 8, ptr nonnull %5) #10
  store ptr null, ptr %5, align 8
  call void @llvm.lifetime.start.p0(i64 8, ptr nonnull %6) #10
  store i64 65536, ptr %6, align 8
  call void @llvm.lifetime.start.p0(i64 8, ptr nonnull %7) #10
  store ptr %4, ptr %7, align 8
  call void @slurm_getpwuid_r(i32 noundef %0, ptr noundef nonnull %2, ptr noundef nonnull %7, ptr noundef nonnull %5, ptr noundef nonnull %6, ptr noundef nonnull %3)
  %8 = load ptr, ptr %3, align 8
  %.not = icmp eq ptr %8, null
  br i1 %.not, label %13, label %9

9:                                                ; preds = %1
  %10 = getelementptr inbounds nuw i8, ptr %8, i64 32
  %11 = load ptr, ptr %10, align 8
  %12 = call ptr @xstrdup(ptr noundef %11) #10
  br label %13

13:                                               ; preds = %9, %1
  %.0 = phi ptr [ %12, %9 ], [ null, %1 ]
  call void @slurm_xfree(ptr noundef nonnull %5) #10
  call void @llvm.lifetime.end.p0(i64 8, ptr nonnull %7) #10
  call void @llvm.lifetime.end.p0(i64 8, ptr nonnull %6) #10
  call void @llvm.lifetime.end.p0(i64 8, ptr nonnull %5) #10
  call void @llvm.lifetime.end.p0(i64 65536, ptr nonnull %4) #10
  call void @llvm.lifetime.end.p0(i64 8, ptr nonnull %3) #10
  call void @llvm.lifetime.end.p0(i64 48, ptr nonnull %2) #10
  ret ptr %.0
}